; Function Attrs: mustprogress uwtable
define hidden void @_ZN11doc_manager4copyER3docRKS0_(ptr noundef nonnull align 8 dereferenceable(1080) %this, ptr noundef nonnull align 8 dereferenceable(88) %dst, ptr nocapture noundef nonnull readonly align 8 dereferenceable(88) %src) local_unnamed_addr #3 align 2 {
entry:
  %0 = load ptr, ptr %dst, align 8
  %1 = load ptr, ptr %src, align 8
  tail call void @_ZNK11tbv_manager4copyER3tbvRKS0_(ptr noundef nonnull align 8 dereferenceable(552) %this, ptr noundef nonnull align 4 dereferenceable(4) %0, ptr noundef nonnull align 4 dereferenceable(4) %1)
  %m_neg.i = getelementptr inbounds i8, ptr %dst, i64 8
  %m_pos.i.i = getelementptr inbounds i8, ptr %dst, i64 16
  %2 = load i32, ptr %m_pos.i.i, align 8
  %cmp4.not.i = icmp eq i32 %2, 0
  br i1 %cmp4.not.i, label %_ZN10union_bvecI11tbv_manager3tbvE5resetERS0_.exit, label %for.body.i

for.body.i:                                       ; preds = %entry, %for.body.i
  %indvars.iv.i = phi i64 [ %indvars.iv.next.i, %for.body.i ], [ 0, %entry ]
  %3 = load ptr, ptr %m_neg.i, align 8
  %arrayidx.i.i = getelementptr inbounds ptr, ptr %3, i64 %indvars.iv.i
  %4 = load ptr, ptr %arrayidx.i.i, align 8
  tail call void @_ZN11tbv_manager10deallocateEP3tbv(ptr noundef nonnull align 8 dereferenceable(552) %this, ptr noundef %4)
  %indvars.iv.next.i = add nuw nsw i64 %indvars.iv.i, 1
  %5 = load i32, ptr %m_pos.i.i, align 8
  %6 = zext i32 %5 to i64
  %cmp.i = icmp ult i64 %indvars.iv.next.i, %6
  br i1 %cmp.i, label %for.body.i, label %_ZN10union_bvecI11tbv_manager3tbvE5resetERS0_.exit, !llvm.loop !8

_ZN10union_bvecI11tbv_manager3tbvE5resetERS0_.exit: ; preds = %for.body.i, %entry
  store i32 0, ptr %m_pos.i.i, align 8
  %m_pos.i.i8 = getelementptr inbounds i8, ptr %src, i64 16
  %7 = load i32, ptr %m_pos.i.i8, align 8
  %cmp13.not = icmp eq i32 %7, 0
  br i1 %cmp13.not, label %for.end, label %for.body.lr.ph

for.body.lr.ph:                                   ; preds = %_ZN10union_bvecI11tbv_manager3tbvE5resetERS0_.exit
  %m_neg.i7 = getelementptr inbounds i8, ptr %src, i64 8
  %m_capacity.i.i = getelementptr inbounds i8, ptr %dst, i64 20
  %m_initial_buffer.i.i.i.i = getelementptr inbounds i8, ptr %dst, i64 24
  br label %for.body

for.body:                                         ; preds = %for.body.lr.ph, %_ZN10union_bvecI11tbv_manager3tbvE9push_backEPS1_.exit
  %indvars.iv = phi i64 [ 0, %for.body.lr.ph ], [ %indvars.iv.next, %_ZN10union_bvecI11tbv_manager3tbvE9push_backEPS1_.exit ]
  %8 = load ptr, ptr %m_neg.i7, align 8
  %arrayidx.i.i11 = getelementptr inbounds ptr, ptr %8, i64 %indvars.iv
  %9 = load ptr, ptr %arrayidx.i.i11, align 8
  %call11 = tail call noundef ptr @_ZN11tbv_manager8allocateERK3tbv(ptr noundef nonnull align 8 dereferenceable(552) %this, ptr noundef nonnull align 4 dereferenceable(4) %9)
  %10 = load i32, ptr %m_pos.i.i, align 8
  %11 = load i32, ptr %m_capacity.i.i, align 4
  %cmp.not.i.i = icmp ult i32 %10, %11
  br i1 %cmp.not.i.i, label %entry.if.end_crit_edge.i.i, label %if.then.i.i

entry.if.end_crit_edge.i.i:                       ; preds = %for.body
  %.pre.i.i = load ptr, ptr %m_neg.i, align 8
  br label %_ZN10union_bvecI11tbv_manager3tbvE9push_backEPS1_.exit

if.then.i.i:                                      ; preds = %for.body
  %shl.i.i.i = shl i32 %11, 1
  %conv.i.i.i = zext i32 %shl.i.i.i to i64
  %mul.i.i.i = shl nuw nsw i64 %conv.i.i.i, 3
  %call.i.i.i = tail call noalias noundef ptr @_ZN6memory8allocateEm(i64 noundef %mul.i.i.i)
  %12 = load i32, ptr %m_pos.i.i, align 8
  %cmp6.not.i.i.i = icmp eq i32 %12, 0
  %.pre.i.i.i = load ptr, ptr %m_neg.i, align 8
  br i1 %cmp6.not.i.i.i, label %for.end.i.i.i, label %for.body.lr.ph.i.i.i

for.body.lr.ph.i.i.i:                             ; preds = %if.then.i.i
  %wide.trip.count.i.i.i = zext i32 %12 to i64
  br label %for.body.i.i.i

for.body.i.i.i:                                   ; preds = %for.body.i.i.i, %for.body.lr.ph.i.i.i
  %indvars.iv.i.i.i = phi i64 [ 0, %for.body.lr.ph.i.i.i ], [ %indvars.iv.next.i.i.i, %for.body.i.i.i ]
  %arrayidx.i.i.i = getelementptr inbounds ptr, ptr %call.i.i.i, i64 %indvars.iv.i.i.i
  %arrayidx3.i.i.i = getelementptr inbounds ptr, ptr %.pre.i.i.i, i64 %indvars.iv.i.i.i
  %13 = load ptr, ptr %arrayidx3.i.i.i, align 8
  store ptr %13, ptr %arrayidx.i.i.i, align 8
  %indvars.iv.next.i.i.i = add nuw nsw i64 %indvars.iv.i.i.i, 1
  %exitcond.not.i.i.i = icmp eq i64 %indvars.iv.next.i.i.i, %wide.trip.count.i.i.i
  br i1 %exitcond.not.i.i.i, label %for.end.i.i.i, label %for.body.i.i.i, !llvm.loop !4

for.end.i.i.i:                                    ; preds = %for.body.i.i.i, %if.then.i.i
  %cmp.not.i.i.i.i = icmp eq ptr %.pre.i.i.i, %m_initial_buffer.i.i.i.i
  %cmp.i.i.i.i.i = icmp eq ptr %.pre.i.i.i, null
  %or.cond.i.i.i.i = or i1 %cmp.not.i.i.i.i, %cmp.i.i.i.i.i
  br i1 %or.cond.i.i.i.i, label %_ZN6bufferIP3tbvLb0ELj8EE6expandEv.exit.i.i, label %if.end.i.i.i.i.i

if.end.i.i.i.i.i:                                 ; preds = %for.end.i.i.i
  tail call void @_ZN6memory10deallocateEPv(ptr noundef nonnull %.pre.i.i.i)
  %.pre1.pre.i.i = load i32, ptr %m_pos.i.i, align 8
  br label %_ZN6bufferIP3tbvLb0ELj8EE6expandEv.exit.i.i

_ZN6bufferIP3tbvLb0ELj8EE6expandEv.exit.i.i:      ; preds = %if.end.i.i.i.i.i, %for.end.i.i.i
  %.pre1.i.i = phi i32 [ %12, %for.end.i.i.i ], [ %.pre1.pre.i.i, %if.end.i.i.i.i.i ]
  store ptr %call.i.i.i, ptr %m_neg.i, align 8
  store i32 %shl.i.i.i, ptr %m_capacity.i.i, align 4
  br label %_ZN10union_bvecI11tbv_manager3tbvE9push_backEPS1_.exit

_ZN10union_bvecI11tbv_manager3tbvE9push_backEPS1_.exit: ; preds = %entry.if.end_crit_edge.i.i, %_ZN6bufferIP3tbvLb0ELj8EE6expandEv.exit.i.i
  %14 = phi i32 [ %10, %entry.if.end_crit_edge.i.i ], [ %.pre1.i.i, %_ZN6bufferIP3tbvLb0ELj8EE6expandEv.exit.i.i ]
  %15 = phi ptr [ %.pre.i.i, %entry.if.end_crit_edge.i.i ], [ %call.i.i.i, %_ZN6bufferIP3tbvLb0ELj8EE6expandEv.exit.i.i ]
  %idx.ext.i.i = zext i32 %14 to i64
  %add.ptr.i.i = getelementptr inbounds ptr, ptr %15, i64 %idx.ext.i.i
  store ptr %call11, ptr %add.ptr.i.i, align 8
  %16 = load i32, ptr %m_pos.i.i, align 8
  %inc.i.i = add i32 %16, 1
  store i32 %inc.i.i, ptr %m_pos.i.i, align 8
  %indvars.iv.next = add nuw nsw i64 %indvars.iv, 1
  %17 = load i32, ptr %m_pos.i.i8, align 8
  %18 = zext i32 %17 to i64
  %cmp = icmp ult i64 %indvars.iv.next, %18
  br i1 %cmp, label %for.body, label %for.end, !llvm.loop !9

for.end:                                          ; preds = %_ZN10union_bvecI11tbv_manager3tbvE9push_backEPS1_.exit, %_ZN10union_bvecI11tbv_manager3tbvE5resetERS0_.exit
  ret void
}